; Function Attrs: nounwind uwtable
define internal range(i32 0, 2) i32 @test_cfq() #0 {
  %1 = tail call ptr @ossl_quic_cfq_new() #3
  %2 = tail call i32 @test_ptr(ptr noundef nonnull @.str.1, i32 noundef 108, ptr noundef nonnull @.str.2, ptr noundef %1) #3
  %.not = icmp eq i32 %2, 0
  br i1 %.not, label %.loopexit, label %.preheader81

3:                                                ; preds = %26
  %4 = add nuw nsw i64 %.05483, 1
  %exitcond.not = icmp eq i64 %4, 10
  br i1 %exitcond.not, label %29, label %.preheader81, !llvm.loop !4

.preheader81:                                     ; preds = %0, %3
  %.05483 = phi i64 [ %4, %3 ], [ 0, %0 ]
  %5 = getelementptr inbounds nuw [10 x i32], ptr @ref_priority, i64 0, i64 %.05483
  %6 = load i32, ptr %5, align 4, !tbaa !6
  %7 = getelementptr inbounds nuw [10 x i32], ptr @ref_pn_space, i64 0, i64 %.05483
  %8 = load i32, ptr %7, align 4, !tbaa !6
  %9 = getelementptr inbounds nuw [10 x i64], ptr @ref_frame_type, i64 0, i64 %.05483
  %10 = load i64, ptr %9, align 8, !tbaa !10
  %11 = getelementptr inbounds nuw i8, ptr @ref_buf, i64 %.05483
  %12 = tail call ptr @ossl_quic_cfq_add_frame(ptr noundef %1, i32 noundef %6, i32 noundef %8, i64 noundef %10, i32 noundef 0, ptr noundef nonnull %11, i64 noundef 1, ptr noundef nonnull @free_cb, ptr noundef null) #3
  %13 = tail call i32 @test_ptr(ptr noundef nonnull @.str.1, i32 noundef 121, ptr noundef nonnull @.str.3, ptr noundef %12) #3
  %.not68 = icmp eq i32 %13, 0
  br i1 %.not68, label %.loopexit, label %14

14:                                               ; preds = %.preheader81
  %15 = tail call i32 @ossl_quic_cfq_item_get_state(ptr noundef %12) #3
  %16 = tail call i32 @test_int_eq(ptr noundef nonnull @.str.1, i32 noundef 123, ptr noundef nonnull @.str.4, ptr noundef nonnull @.str.5, i32 noundef %15, i32 noundef 0) #3
  %.not69 = icmp eq i32 %16, 0
  br i1 %.not69, label %.loopexit, label %17

17:                                               ; preds = %14
  %18 = tail call i32 @ossl_quic_cfq_item_get_pn_space(ptr noundef %12) #3
  %19 = tail call i32 @test_uint_eq(ptr noundef nonnull @.str.1, i32 noundef 125, ptr noundef nonnull @.str.6, ptr noundef nonnull @.str.7, i32 noundef %18, i32 noundef %8) #3
  %.not70 = icmp eq i32 %19, 0
  br i1 %.not70, label %.loopexit, label %20

20:                                               ; preds = %17
  %21 = tail call i64 @ossl_quic_cfq_item_get_frame_type(ptr noundef %12) #3
  %22 = tail call i32 @test_uint64_t_eq(ptr noundef nonnull @.str.1, i32 noundef 127, ptr noundef nonnull @.str.8, ptr noundef nonnull @.str.9, i64 noundef %21, i64 noundef %10) #3
  %.not71 = icmp eq i32 %22, 0
  br i1 %.not71, label %.loopexit, label %23

23:                                               ; preds = %20
  %24 = tail call ptr @ossl_quic_cfq_item_get_encoded(ptr noundef %12) #3
  %25 = tail call i32 @test_ptr_eq(ptr noundef nonnull @.str.1, i32 noundef 129, ptr noundef nonnull @.str.10, ptr noundef nonnull @.str.11, ptr noundef %24, ptr noundef nonnull %11) #3
  %.not72 = icmp eq i32 %25, 0
  br i1 %.not72, label %.loopexit, label %26

26:                                               ; preds = %23
  %27 = tail call i64 @ossl_quic_cfq_item_get_encoded_len(ptr noundef %12) #3
  %28 = tail call i32 @test_size_t_eq(ptr noundef nonnull @.str.1, i32 noundef 131, ptr noundef nonnull @.str.12, ptr noundef nonnull @.str.13, i64 noundef %27, i64 noundef 1) #3
  %.not73 = icmp eq i32 %28, 0
  br i1 %.not73, label %.loopexit, label %3

29:                                               ; preds = %3
  %30 = tail call fastcc i32 @check(ptr noundef %1)
  %.not61 = icmp eq i32 %30, 0
  br i1 %.not61, label %.loopexit, label %.preheader80

.preheader80:                                     ; preds = %29, %._crit_edge
  %.086 = phi i32 [ %33, %._crit_edge ], [ 0, %29 ]
  %31 = tail call ptr @ossl_quic_cfq_get_priority_head(ptr noundef %1, i32 noundef %.086) #3
  %.not6784 = icmp eq ptr %31, null
  br i1 %.not6784, label %._crit_edge, label %.lr.ph

.lr.ph:                                           ; preds = %.preheader80, %.lr.ph
  %.05885 = phi ptr [ %32, %.lr.ph ], [ %31, %.preheader80 ]
  %32 = tail call ptr @ossl_quic_cfq_item_get_priority_next(ptr noundef nonnull %.05885, i32 noundef %.086) #3
  tail call void @ossl_quic_cfq_mark_tx(ptr noundef %1, ptr noundef nonnull %.05885) #3
  %.not67 = icmp eq ptr %32, null
  br i1 %.not67, label %._crit_edge, label %.lr.ph, !llvm.loop !12

._crit_edge:                                      ; preds = %.lr.ph, %.preheader80
  %33 = add nuw nsw i32 %.086, 1
  %exitcond95.not = icmp eq i32 %33, 3
  br i1 %exitcond95.not, label %.preheader78, label %.preheader80, !llvm.loop !13

34:                                               ; preds = %.preheader78
  %35 = add nuw nsw i32 %.187, 1
  %exitcond96.not = icmp eq i32 %35, 3
  br i1 %exitcond96.not, label %.preheader76, label %.preheader78, !llvm.loop !14

.preheader78:                                     ; preds = %._crit_edge, %34
  %.187 = phi i32 [ %35, %34 ], [ 0, %._crit_edge ]
  %36 = tail call ptr @ossl_quic_cfq_get_priority_head(ptr noundef %1, i32 noundef %.187) #3
  %37 = tail call i32 @test_ptr_null(ptr noundef nonnull @.str.1, i32 noundef 147, ptr noundef nonnull @.str.14, ptr noundef %36) #3
  %.not66 = icmp eq i32 %37, 0
  br i1 %.not66, label %.loopexit, label %34

.preheader76:                                     ; preds = %34, %44
  %indvars.iv = phi i64 [ %indvars.iv.next, %44 ], [ 0, %34 ]
  br label %38

38:                                               ; preds = %.preheader76, %42
  %.15588 = phi i64 [ 0, %.preheader76 ], [ %43, %42 ]
  %39 = getelementptr inbounds nuw [3 x [10 x ptr]], ptr @items, i64 0, i64 %indvars.iv, i64 %.15588
  %40 = load ptr, ptr %39, align 8, !tbaa !15
  %.not65 = icmp eq ptr %40, null
  br i1 %.not65, label %42, label %41

41:                                               ; preds = %38
  tail call void @ossl_quic_cfq_mark_lost(ptr noundef %1, ptr noundef nonnull %40, i32 noundef -1) #3
  br label %42

42:                                               ; preds = %38, %41
  %43 = add nuw nsw i64 %.15588, 1
  %exitcond97.not = icmp eq i64 %43, 10
  br i1 %exitcond97.not, label %44, label %38, !llvm.loop !18

44:                                               ; preds = %42
  %indvars.iv.next = add nuw nsw i64 %indvars.iv, 1
  %exitcond99.not = icmp eq i64 %indvars.iv.next, 3
  br i1 %exitcond99.not, label %45, label %.preheader76, !llvm.loop !19

45:                                               ; preds = %44
  %46 = tail call fastcc i32 @check(ptr noundef %1)
  %.not62 = icmp eq i32 %46, 0
  br i1 %.not62, label %.loopexit, label %.preheader74

.preheader74:                                     ; preds = %45, %53
  %indvars.iv101 = phi i64 [ %indvars.iv.next102, %53 ], [ 0, %45 ]
  br label %47

47:                                               ; preds = %.preheader74, %51
  %.25690 = phi i64 [ 0, %.preheader74 ], [ %52, %51 ]
  %48 = getelementptr inbounds nuw [3 x [10 x ptr]], ptr @items, i64 0, i64 %indvars.iv101, i64 %.25690
  %49 = load ptr, ptr %48, align 8, !tbaa !15
  %.not64 = icmp eq ptr %49, null
  br i1 %.not64, label %51, label %50

50:                                               ; preds = %47
  tail call void @ossl_quic_cfq_release(ptr noundef %1, ptr noundef nonnull %49) #3
  br label %51

51:                                               ; preds = %47, %50
  %52 = add nuw nsw i64 %.25690, 1
  %exitcond100.not = icmp eq i64 %52, 10
  br i1 %exitcond100.not, label %53, label %47, !llvm.loop !20

53:                                               ; preds = %51
  %indvars.iv.next102 = add nuw nsw i64 %indvars.iv101, 1
  %exitcond104.not = icmp eq i64 %indvars.iv.next102, 3
  br i1 %exitcond104.not, label %.preheader, label %.preheader74, !llvm.loop !21

54:                                               ; preds = %.preheader
  %55 = add nuw nsw i32 %.492, 1
  %exitcond105.not = icmp eq i32 %55, 3
  br i1 %exitcond105.not, label %.loopexit, label %.preheader, !llvm.loop !22

.preheader:                                       ; preds = %53, %54
  %.492 = phi i32 [ %55, %54 ], [ 0, %53 ]
  %56 = tail call ptr @ossl_quic_cfq_get_priority_head(ptr noundef %1, i32 noundef %.492) #3
  %57 = tail call i32 @test_ptr_null(ptr noundef nonnull @.str.1, i32 noundef 164, ptr noundef nonnull @.str.14, ptr noundef %56) #3
  %.not63 = icmp eq i32 %57, 0
  br i1 %.not63, label %.loopexit, label %54

.loopexit:                                        ; preds = %.preheader81, %14, %17, %20, %23, %26, %.preheader78, %54, %.preheader, %45, %29, %0
  %.057 = phi i32 [ 0, %45 ], [ 0, %29 ], [ 0, %0 ], [ 1, %54 ], [ 0, %.preheader ], [ 0, %.preheader78 ], [ 0, %26 ], [ 0, %23 ], [ 0, %20 ], [ 0, %17 ], [ 0, %14 ], [ 0, %.preheader81 ]
  tail call void @ossl_quic_cfq_free(ptr noundef %1) #3
  ret i32 %.057
}